target datalayout = "e-m:e-p270:32:32-p271:32:32-p272:64:64-i64:64-i128:128-f80:128-n8:16:32:64-S128"
target triple = "x86_64-pc-linux-gnu"

%class.QElapsedTimer = type { i64, i64 }
%class.QString = type { ptr }
%class.QFlags.474 = type { i32 }

@_ZN10MainWindow2qbE = external global ptr, align 8
@_ZN16QCoreApplication4selfE = external global ptr, align 8
@_ZZN10MainWindow15globalStatusBarEvE4_qsb = linkonce_odr global ptr null, comdat, align 8
@_ZZN10MainWindow9QCallBackEiPKcE8currTime = internal global %class.QElapsedTimer { i64 -9223372036854775808, i64 -9223372036854775808 }, align 8

; Function Attrs: mustprogress nounwind uwtable
define linkonce_odr void @_ZN6QFlagsIN10QEventLoop17ProcessEventsFlagEEC2ES1_(ptr noundef nonnull align 4 dereferenceable(4) %0, i32 noundef %1) unnamed_addr #4 comdat align 2 {
  %3 = alloca ptr, align 8
  %4 = alloca i32, align 4
  store ptr %0, ptr %3, align 8
  store i32 %1, ptr %4, align 4
  %5 = load ptr, ptr %3, align 8
  %6 = getelementptr inbounds %class.QFlags.474, ptr %5, i32 0, i32 0
  %7 = load i32, ptr %4, align 4
  store i32 %7, ptr %6, align 4
  ret void
}

; Function Attrs: mustprogress nounwind uwtable
define linkonce_odr noundef ptr @_ZN16QCoreApplication8instanceEv() #4 comdat align 2 {
  %1 = load ptr, ptr @_ZN16QCoreApplication4selfE, align 8
  ret ptr %1
}

; Function Attrs: mustprogress uwtable
define linkonce_odr void @_ZN7QStringC2EPKc(ptr noundef nonnull align 8 dereferenceable(8) %0, ptr noundef %1) unnamed_addr #5 comdat align 2 {
  %3 = alloca ptr, align 8
  %4 = alloca ptr, align 8
  store ptr %0, ptr %3, align 8
  store ptr %1, ptr %4, align 8
  %5 = load ptr, ptr %3, align 8
  %6 = getelementptr inbounds %class.QString, ptr %5, i32 0, i32 0
  %7 = load ptr, ptr %4, align 8
  %8 = load ptr, ptr %4, align 8
  %9 = icmp ne ptr %8, null
  br i1 %9, label %10, label %14

10:                                               ; preds = %2
  %11 = load ptr, ptr %4, align 8
  %12 = call i64 @strlen(ptr noundef %11) #17
  %13 = trunc i64 %12 to i32
  br label %15

14:                                               ; preds = %2
  br label %15

15:                                               ; preds = %14, %10
  %16 = phi i32 [ %13, %10 ], [ -1, %14 ]
  %17 = call noundef ptr @_ZN7QString16fromAscii_helperEPKci(ptr noundef %7, i32 noundef %16)
  store ptr %17, ptr %6, align 8
  ret void
}

; Function Attrs: mustprogress nounwind uwtable
define linkonce_odr noundef nonnull align 8 dereferenceable(8) ptr @_ZN10MainWindow15globalStatusBarEv() #4 comdat align 2 {
  ret ptr @_ZZN10MainWindow15globalStatusBarEvE4_qsb
}

; Function Attrs: mustprogress uwtable
define noundef zeroext i1 @_ZN10MainWindow9QCallBackEiPKc(i32 noundef %0, ptr noundef %1) #5 align 2 personality ptr @__gxx_personality_v0 {
  %3 = alloca i1, align 1
  %4 = alloca i32, align 4
  %5 = alloca ptr, align 8
  %6 = alloca %class.QString, align 8
  %7 = alloca ptr, align 8
  %8 = alloca i32, align 4
  %9 = alloca %class.QFlags.474, align 4
  store i32 %0, ptr %4, align 4
  store ptr %1, ptr %5, align 8
  %10 = call noundef zeroext i1 @_ZNK13QElapsedTimer7isValidEv(ptr noundef nonnull align 8 dereferenceable(16) @_ZZN10MainWindow9QCallBackEiPKcE8currTime) #3
  br i1 %10, label %11, label %15

11:                                               ; preds = %2
  %12 = call noundef i64 @_ZNK13QElapsedTimer7elapsedEv(ptr noundef nonnull align 8 dereferenceable(16) @_ZZN10MainWindow9QCallBackEiPKcE8currTime) #3
  %13 = icmp slt i64 %12, 100
  br i1 %13, label %14, label %15

14:                                               ; preds = %11
  store i1 true, ptr %3, align 1
  br label %33

15:                                               ; preds = %11, %2
  call void @_ZN13QElapsedTimer5startEv(ptr noundef nonnull align 8 dereferenceable(16) @_ZZN10MainWindow9QCallBackEiPKcE8currTime) #3
  %16 = call noundef nonnull align 8 dereferenceable(8) ptr @_ZN10MainWindow15globalStatusBarEv()
  %17 = load ptr, ptr %16, align 8
  %18 = load ptr, ptr %5, align 8
  call void @_ZN7QStringC2EPKc(ptr noundef nonnull align 8 dereferenceable(8) %6, ptr noundef %18)
  invoke void @_ZN10QStatusBar11showMessageERK7QStringi(ptr noundef nonnull align 8 dereferenceable(48) %17, ptr noundef nonnull align 8 dereferenceable(8) %6, i32 noundef 5000)
          to label %19 unwind label %29

19:                                               ; preds = %15
  call void @_ZN7QStringD2Ev(ptr noundef nonnull align 8 dereferenceable(8) %6) #3
  %20 = load ptr, ptr @_ZN10MainWindow2qbE, align 8
  call void @_ZN7QWidget4showEv(ptr noundef nonnull align 8 dereferenceable(48) %20)
  %21 = load ptr, ptr @_ZN10MainWindow2qbE, align 8
  call void @_ZN7QWidget10setEnabledEb(ptr noundef nonnull align 8 dereferenceable(48) %21, i1 noundef zeroext true)
  %22 = load ptr, ptr @_ZN10MainWindow2qbE, align 8
  %23 = load i32, ptr %4, align 4
  call void @_ZN12QProgressBar8setValueEi(ptr noundef nonnull align 8 dereferenceable(48) %22, i32 noundef %23)
  %24 = call noundef nonnull align 8 dereferenceable(8) ptr @_ZN10MainWindow15globalStatusBarEv()
  %25 = load ptr, ptr %24, align 8
  call void @_ZN7QWidget6updateEv(ptr noundef nonnull align 8 dereferenceable(48) %25)
  %26 = call noundef ptr @_ZN16QCoreApplication8instanceEv()
  call void @_ZN6QFlagsIN10QEventLoop17ProcessEventsFlagEEC2ES1_(ptr noundef nonnull align 4 dereferenceable(4) %9, i32 noundef 0) #3
  %27 = getelementptr inbounds %class.QFlags.474, ptr %9, i32 0, i32 0
  %28 = load i32, ptr %27, align 4
  call void @_ZN16QCoreApplication13processEventsE6QFlagsIN10QEventLoop17ProcessEventsFlagEE(i32 %28)
  store i1 true, ptr %3, align 1
  br label %33

29:                                               ; preds = %15
  %30 = landingpad { ptr, i32 }
          cleanup
  %31 = extractvalue { ptr, i32 } %30, 0
  store ptr %31, ptr %7, align 8
  %32 = extractvalue { ptr, i32 } %30, 1
  store i32 %32, ptr %8, align 4
  call void @_ZN7QStringD2Ev(ptr noundef nonnull align 8 dereferenceable(8) %6) #3
  br label %35

33:                                               ; preds = %19, %14
  %34 = load i1, ptr %3, align 1
  ret i1 %34

35:                                               ; preds = %29
  %36 = load ptr, ptr %7, align 8
  %37 = load i32, ptr %8, align 4
  %38 = insertvalue { ptr, i32 } poison, ptr %36, 0
  %39 = insertvalue { ptr, i32 } %38, i32 %37, 1
  resume { ptr, i32 } %39
}