; Function Attrs: mustprogress uwtable
define noundef zeroext i1 @_ZN10MainWindow9QCallBackEiPKc(i32 noundef %0, ptr noundef %1) #9 align 2 personality ptr @__gxx_personality_v0 {
  %3 = alloca %class.QString, align 8
  %4 = tail call noundef zeroext i1 @_ZNK13QElapsedTimer7isValidEv(ptr noundef nonnull align 8 dereferenceable(16) @_ZZN10MainWindow9QCallBackEiPKcE8currTime) #26
  br i1 %4, label %5, label %8

5:                                                ; preds = %2
  %6 = tail call noundef i64 @_ZNK13QElapsedTimer7elapsedEv(ptr noundef nonnull align 8 dereferenceable(16) @_ZZN10MainWindow9QCallBackEiPKcE8currTime) #26
  %7 = icmp slt i64 %6, 100
  br i1 %7, label %26, label %8

8:                                                ; preds = %5, %2
  tail call void @_ZN13QElapsedTimer5startEv(ptr noundef nonnull align 8 dereferenceable(16) @_ZZN10MainWindow9QCallBackEiPKcE8currTime) #26
  %9 = load ptr, ptr @_ZZN10MainWindow15globalStatusBarEvE4_qsb, align 8
  %.not.i = icmp eq ptr %1, null
  br i1 %.not.i, label %_ZN7QStringC2EPKc.exit, label %10

10:                                               ; preds = %8
  %11 = tail call i64 @strlen(ptr noundef nonnull dereferenceable(1) %1) #28
  %12 = trunc i64 %11 to i32
  br label %_ZN7QStringC2EPKc.exit

_ZN7QStringC2EPKc.exit:                           ; preds = %8, %10
  %13 = phi i32 [ %12, %10 ], [ -1, %8 ]
  %14 = tail call noundef ptr @_ZN7QString16fromAscii_helperEPKci(ptr noundef %1, i32 noundef %13)
  store ptr %14, ptr %3, align 8
  invoke void @_ZN10QStatusBar11showMessageERK7QStringi(ptr noundef nonnull align 8 dereferenceable(48) %9, ptr noundef nonnull align 8 dereferenceable(8) %3, i32 noundef 5000)
          to label %15 unwind label %24

15:                                               ; preds = %_ZN7QStringC2EPKc.exit
  %16 = load ptr, ptr %3, align 8
  %17 = load atomic i32, ptr %16 monotonic, align 4
  switch i32 %17, label %_ZN9QtPrivate8RefCount5derefEv.exit.i [
    i32 0, label %_ZN9QtPrivate8RefCount5derefEv.exit.thread2.i
    i32 -1, label %_ZN7QStringD2Ev.exit
  ]

_ZN9QtPrivate8RefCount5derefEv.exit.i:            ; preds = %15
  %18 = atomicrmw sub ptr %16, i32 1 seq_cst, align 4
  %.not.i4 = icmp eq i32 %18, 1
  br i1 %.not.i4, label %_ZN9QtPrivate8RefCount5derefEv.exit._ZN9QtPrivate8RefCount5derefEv.exit.thread2_crit_edge.i, label %_ZN7QStringD2Ev.exit

_ZN9QtPrivate8RefCount5derefEv.exit._ZN9QtPrivate8RefCount5derefEv.exit.thread2_crit_edge.i: ; preds = %_ZN9QtPrivate8RefCount5derefEv.exit.i
  %.pre.i = load ptr, ptr %3, align 8
  br label %_ZN9QtPrivate8RefCount5derefEv.exit.thread2.i

_ZN9QtPrivate8RefCount5derefEv.exit.thread2.i:    ; preds = %_ZN9QtPrivate8RefCount5derefEv.exit._ZN9QtPrivate8RefCount5derefEv.exit.thread2_crit_edge.i, %15
  %19 = phi ptr [ %.pre.i, %_ZN9QtPrivate8RefCount5derefEv.exit._ZN9QtPrivate8RefCount5derefEv.exit.thread2_crit_edge.i ], [ %16, %15 ]
  call void @_ZN10QArrayData10deallocateEPS_mm(ptr noundef %19, i64 noundef 2, i64 noundef 8) #26
  br label %_ZN7QStringD2Ev.exit

_ZN7QStringD2Ev.exit:                             ; preds = %15, %_ZN9QtPrivate8RefCount5derefEv.exit.i, %_ZN9QtPrivate8RefCount5derefEv.exit.thread2.i
  %20 = load ptr, ptr @_ZN10MainWindow2qbE, align 8
  call void @_ZN7QWidget4showEv(ptr noundef nonnull align 8 dereferenceable(48) %20)
  %21 = load ptr, ptr @_ZN10MainWindow2qbE, align 8
  call void @_ZN7QWidget10setEnabledEb(ptr noundef nonnull align 8 dereferenceable(48) %21, i1 noundef zeroext true)
  %22 = load ptr, ptr @_ZN10MainWindow2qbE, align 8
  call void @_ZN12QProgressBar8setValueEi(ptr noundef nonnull align 8 dereferenceable(48) %22, i32 noundef %0)
  %23 = load ptr, ptr @_ZZN10MainWindow15globalStatusBarEvE4_qsb, align 8
  call void @_ZN7QWidget6updateEv(ptr noundef nonnull align 8 dereferenceable(48) %23)
  call void @_ZN16QCoreApplication13processEventsE6QFlagsIN10QEventLoop17ProcessEventsFlagEE(i32 0)
  br label %26

24:                                               ; preds = %_ZN7QStringC2EPKc.exit
  %25 = landingpad { ptr, i32 }
          cleanup
  call void @_ZN7QStringD2Ev(ptr noundef nonnull align 8 dereferenceable(8) %3) #26
  resume { ptr, i32 } %25

26:                                               ; preds = %5, %_ZN7QStringD2Ev.exit
  ret i1 true
}